target datalayout = "e-m:e-p270:32:32-p271:32:32-p272:64:64-i64:64-i128:128-f80:128-n8:16:32:64-S128"
target triple = "x86_64-pc-linux-gnu"

; Function Attrs: inlinehint nounwind uwtable
define internal i32 @pg_leftmost_one_pos32(i32 noundef %0) #3 {
  %2 = alloca i32, align 4
  store i32 %0, ptr %2, align 4
  %3 = load i32, ptr %2, align 4
  %4 = call i32 @llvm.ctlz.i32(i32 %3, i1 true)
  %5 = sub i32 31, %4
  ret i32 %5
}

; Function Attrs: inlinehint nounwind uwtable
define internal i32 @pg_ceil_log2_32(i32 noundef %0) #3 {
  %2 = alloca i32, align 4
  %3 = alloca i32, align 4
  store i32 %0, ptr %3, align 4
  %4 = load i32, ptr %3, align 4
  %5 = icmp ult i32 %4, 2
  br i1 %5, label %6, label %7

6:                                                ; preds = %1
  store i32 0, ptr %2, align 4
  br label %12

7:                                                ; preds = %1
  %8 = load i32, ptr %3, align 4
  %9 = sub i32 %8, 1
  %10 = call i32 @pg_leftmost_one_pos32(i32 noundef %9)
  %11 = add i32 %10, 1
  store i32 %11, ptr %2, align 4
  br label %12

12:                                               ; preds = %7, %6
  %13 = load i32, ptr %2, align 4
  ret i32 %13
}

; Function Attrs: nounwind uwtable
define dso_local i32 @_hash_spareindex(i32 noundef %0) #0 {
  %2 = alloca i32, align 4
  %3 = alloca i32, align 4
  %4 = alloca i32, align 4
  %5 = alloca i32, align 4
  %6 = alloca i32, align 4
  store i32 %0, ptr %3, align 4
  call void @llvm.lifetime.start.p0(i64 4, ptr %4) #6
  call void @llvm.lifetime.start.p0(i64 4, ptr %5) #6
  %7 = load i32, ptr %3, align 4
  %8 = call i32 @pg_ceil_log2_32(i32 noundef %7)
  store i32 %8, ptr %4, align 4
  %9 = load i32, ptr %4, align 4
  %10 = icmp ult i32 %9, 10
  br i1 %10, label %11, label %13

11:                                               ; preds = %1
  %12 = load i32, ptr %4, align 4
  store i32 %12, ptr %2, align 4
  store i32 1, ptr %6, align 4
  br label %28

13:                                               ; preds = %1
  store i32 10, ptr %5, align 4
  %14 = load i32, ptr %4, align 4
  %15 = sub i32 %14, 10
  %16 = shl i32 %15, 2
  %17 = load i32, ptr %5, align 4
  %18 = add i32 %17, %16
  store i32 %18, ptr %5, align 4
  %19 = load i32, ptr %3, align 4
  %20 = sub i32 %19, 1
  %21 = load i32, ptr %4, align 4
  %22 = sub i32 %21, 3
  %23 = lshr i32 %20, %22
  %24 = and i32 %23, 3
  %25 = load i32, ptr %5, align 4
  %26 = add i32 %25, %24
  store i32 %26, ptr %5, align 4
  %27 = load i32, ptr %5, align 4
  store i32 %27, ptr %2, align 4
  store i32 1, ptr %6, align 4
  br label %28

28:                                               ; preds = %13, %11
  call void @llvm.lifetime.end.p0(i64 4, ptr %5) #6
  call void @llvm.lifetime.end.p0(i64 4, ptr %4) #6
  %29 = load i32, ptr %2, align 4
  ret i32 %29
}