; Function Attrs: mustprogress nofree norecurse nosync nounwind willreturn memory(none) uwtable
define dso_local range(i32 0, 102) i32 @_hash_spareindex(i32 noundef %0) local_unnamed_addr #0 {
  %2 = icmp ult i32 %0, 2
  %3 = add i32 %0, -1
  %4 = tail call range(i32 0, 33) i32 @llvm.ctlz.i32(i32 %3, i1 true)
  %5 = sub nuw nsw i32 32, %4
  %.0.i = select i1 %2, i32 0, i32 %5
  %6 = icmp samesign ult i32 %.0.i, 10
  br i1 %6, label %14, label %7

7:                                                ; preds = %1
  %8 = shl nuw nsw i32 %.0.i, 2
  %9 = add nsw i32 %8, -30
  %10 = add nsw i32 %.0.i, -3
  %11 = lshr i32 %3, %10
  %12 = and i32 %11, 3
  %13 = add nuw nsw i32 %9, %12
  br label %14

14:                                               ; preds = %1, %7
  %.0 = phi i32 [ %13, %7 ], [ %.0.i, %1 ]
  ret i32 %.0
}